; Function Attrs: mustprogress uwtable
define void @_ZNK6casadi6MXNode20get_solve_triu_unityERKNS_2MXEb(ptr dead_on_unwind noalias writable sret(%"class.casadi::MX") align 8 %0, ptr noundef nonnull align 8 dereferenceable(64) %1, ptr noundef nonnull align 8 dereferenceable(8) %2, i1 noundef zeroext %3) unnamed_addr #3 align 2 personality ptr @__gxx_personality_v0 {
  %5 = alloca %"class.casadi::MX", align 8
  %6 = alloca %"class.casadi::MX", align 8
  %7 = alloca %"class.casadi::MX", align 8
  %8 = alloca %"class.casadi::MX", align 8
  %9 = alloca %"class.casadi::MX", align 8
  %10 = alloca %"class.casadi::MX", align 8
  %11 = tail call noalias noundef nonnull dereferenceable(72) ptr @_Znwm(i64 noundef 72) #35
  br i1 %3, label %12, label %26

12:                                               ; preds = %4
  call void @llvm.lifetime.start.p0(i64 8, ptr nonnull %6)
  invoke void @_ZN6casadi2MXC1Ed(ptr noundef nonnull align 8 dereferenceable(8) %6, double noundef 0.000000e+00)
          to label %.noexc unwind label %21

.noexc:                                           ; preds = %12
  invoke void @_ZN6casadi2MX7densifyERKS0_S2_(ptr dead_on_unwind nonnull writable sret(%"class.casadi::MX") align 8 %7, ptr noundef nonnull align 8 dereferenceable(8) %2, ptr noundef nonnull align 8 dereferenceable(8) %6)
          to label %15 unwind label %13

13:                                               ; preds = %.noexc
  %14 = landingpad { ptr, i32 }
          cleanup
  call void @_ZN6casadi2MXD1Ev(ptr noundef nonnull align 8 dereferenceable(8) %6) #31
  br label %.sink.split

15:                                               ; preds = %.noexc
  call void @_ZN6casadi2MXD1Ev(ptr noundef nonnull align 8 dereferenceable(8) %6) #31
  call void @llvm.lifetime.end.p0(i64 8, ptr nonnull %6)
  invoke void @_ZNK6casadi20SharedObjectInternal16shared_from_thisINS_2MXEEEKT_v(ptr dead_on_unwind nonnull writable sret(%"class.casadi::MX") align 8 %8, ptr noundef nonnull align 8 dereferenceable(24) %1)
          to label %16 unwind label %.body.thread37

16:                                               ; preds = %15
  invoke void @_ZN6casadi5SolveILb1EEC2ERKNS_2MXES4_(ptr noundef nonnull align 8 dereferenceable(64) %11, ptr noundef nonnull align 8 dereferenceable(8) %7, ptr noundef nonnull align 8 dereferenceable(8) %8)
          to label %.noexc24 unwind label %24

.noexc24:                                         ; preds = %16
  store ptr getelementptr inbounds ({ [112 x ptr] }, ptr @_ZTVN6casadi10SolveUnityILb1EEE, i64 0, i32 0, i64 2), ptr %11, align 8
  %17 = getelementptr inbounds i8, ptr %11, i64 64
  invoke void @_ZN6casadi8SparsityC1Ex(ptr noundef nonnull align 8 dereferenceable(8) %17, i64 noundef 0)
          to label %20 unwind label %18

18:                                               ; preds = %.noexc24
  %19 = landingpad { ptr, i32 }
          cleanup
  call void @_ZN6casadi6MXNodeD2Ev(ptr noundef nonnull align 8 dereferenceable(64) %11) #31
  br label %.body

20:                                               ; preds = %.noexc24
  store ptr getelementptr inbounds ({ [112 x ptr] }, ptr @_ZTVN6casadi14TriuSolveUnityILb1EEE, i64 0, i32 0, i64 2), ptr %11, align 8
  invoke void @_ZN6casadi2MX6createEPNS_6MXNodeE(ptr dead_on_unwind writable sret(%"class.casadi::MX") align 8 %0, ptr noundef nonnull %11)
          to label %40 unwind label %24

21:                                               ; preds = %12
  %22 = landingpad { ptr, i32 }
          cleanup
  br label %.sink.split

.body.thread37:                                   ; preds = %15
  %23 = landingpad { ptr, i32 }
          cleanup
  call void @_ZN6casadi2MXD1Ev(ptr noundef nonnull align 8 dereferenceable(8) %7) #31
  br label %.sink.split

24:                                               ; preds = %16, %20
  %.07 = phi i1 [ false, %20 ], [ true, %16 ]
  %25 = landingpad { ptr, i32 }
          cleanup
  br label %.body

.body:                                            ; preds = %24, %18
  %.07.lpad-body = phi i1 [ %.07, %24 ], [ true, %18 ]
  %eh.lpad-body26 = phi { ptr, i32 } [ %25, %24 ], [ %19, %18 ]
  call void @_ZN6casadi2MXD1Ev(ptr noundef nonnull align 8 dereferenceable(8) %8) #31
  call void @_ZN6casadi2MXD1Ev(ptr noundef nonnull align 8 dereferenceable(8) %7) #31
  br i1 %.07.lpad-body, label %.sink.split, label %41

26:                                               ; preds = %4
  call void @llvm.lifetime.start.p0(i64 8, ptr nonnull %5)
  invoke void @_ZN6casadi2MXC1Ed(ptr noundef nonnull align 8 dereferenceable(8) %5, double noundef 0.000000e+00)
          to label %.noexc27 unwind label %35

.noexc27:                                         ; preds = %26
  invoke void @_ZN6casadi2MX7densifyERKS0_S2_(ptr dead_on_unwind nonnull writable sret(%"class.casadi::MX") align 8 %9, ptr noundef nonnull align 8 dereferenceable(8) %2, ptr noundef nonnull align 8 dereferenceable(8) %5)
          to label %29 unwind label %27

27:                                               ; preds = %.noexc27
  %28 = landingpad { ptr, i32 }
          cleanup
  call void @_ZN6casadi2MXD1Ev(ptr noundef nonnull align 8 dereferenceable(8) %5) #31
  br label %.sink.split

29:                                               ; preds = %.noexc27
  call void @_ZN6casadi2MXD1Ev(ptr noundef nonnull align 8 dereferenceable(8) %5) #31
  call void @llvm.lifetime.end.p0(i64 8, ptr nonnull %5)
  invoke void @_ZNK6casadi20SharedObjectInternal16shared_from_thisINS_2MXEEEKT_v(ptr dead_on_unwind nonnull writable sret(%"class.casadi::MX") align 8 %10, ptr noundef nonnull align 8 dereferenceable(24) %1)
          to label %30 unwind label %.body28.thread43

30:                                               ; preds = %29
  invoke void @_ZN6casadi5SolveILb0EEC2ERKNS_2MXES4_(ptr noundef nonnull align 8 dereferenceable(64) %11, ptr noundef nonnull align 8 dereferenceable(8) %9, ptr noundef nonnull align 8 dereferenceable(8) %10)
          to label %.noexc31 unwind label %38

.noexc31:                                         ; preds = %30
  store ptr getelementptr inbounds ({ [112 x ptr] }, ptr @_ZTVN6casadi10SolveUnityILb0EEE, i64 0, i32 0, i64 2), ptr %11, align 8
  %31 = getelementptr inbounds i8, ptr %11, i64 64
  invoke void @_ZN6casadi8SparsityC1Ex(ptr noundef nonnull align 8 dereferenceable(8) %31, i64 noundef 0)
          to label %34 unwind label %32

32:                                               ; preds = %.noexc31
  %33 = landingpad { ptr, i32 }
          cleanup
  call void @_ZN6casadi6MXNodeD2Ev(ptr noundef nonnull align 8 dereferenceable(64) %11) #31
  br label %.body28

34:                                               ; preds = %.noexc31
  store ptr getelementptr inbounds ({ [112 x ptr] }, ptr @_ZTVN6casadi14TriuSolveUnityILb0EEE, i64 0, i32 0, i64 2), ptr %11, align 8
  invoke void @_ZN6casadi2MX6createEPNS_6MXNodeE(ptr dead_on_unwind writable sret(%"class.casadi::MX") align 8 %0, ptr noundef nonnull %11)
          to label %40 unwind label %38

35:                                               ; preds = %26
  %36 = landingpad { ptr, i32 }
          cleanup
  br label %.sink.split

.body28.thread43:                                 ; preds = %29
  %37 = landingpad { ptr, i32 }
          cleanup
  call void @_ZN6casadi2MXD1Ev(ptr noundef nonnull align 8 dereferenceable(8) %9) #31
  br label %.sink.split

38:                                               ; preds = %30, %34
  %.0 = phi i1 [ false, %34 ], [ true, %30 ]
  %39 = landingpad { ptr, i32 }
          cleanup
  br label %.body28

.body28:                                          ; preds = %38, %32
  %.0.lpad-body = phi i1 [ %.0, %38 ], [ true, %32 ]
  %eh.lpad-body33 = phi { ptr, i32 } [ %39, %38 ], [ %33, %32 ]
  call void @_ZN6casadi2MXD1Ev(ptr noundef nonnull align 8 dereferenceable(8) %10) #31
  call void @_ZN6casadi2MXD1Ev(ptr noundef nonnull align 8 dereferenceable(8) %9) #31
  br i1 %.0.lpad-body, label %.sink.split, label %41

40:                                               ; preds = %34, %20
  %.sink46 = phi ptr [ %8, %20 ], [ %10, %34 ]
  %.sink = phi ptr [ %7, %20 ], [ %9, %34 ]
  call void @_ZN6casadi2MXD1Ev(ptr noundef nonnull align 8 dereferenceable(8) %.sink46) #31
  call void @_ZN6casadi2MXD1Ev(ptr noundef nonnull align 8 dereferenceable(8) %.sink) #31
  ret void

.sink.split:                                      ; preds = %.body28, %.body28.thread43, %27, %35, %.body, %.body.thread37, %13, %21
  %.pn20.pn.pn.ph = phi { ptr, i32 } [ %eh.lpad-body26, %.body ], [ %23, %.body.thread37 ], [ %14, %13 ], [ %22, %21 ], [ %eh.lpad-body33, %.body28 ], [ %37, %.body28.thread43 ], [ %28, %27 ], [ %36, %35 ]
  call void @_ZdlPv(ptr noundef nonnull %11) #32
  br label %41

41:                                               ; preds = %.sink.split, %.body28, %.body
  %.pn20.pn.pn = phi { ptr, i32 } [ %eh.lpad-body26, %.body ], [ %eh.lpad-body33, %.body28 ], [ %.pn20.pn.pn.ph, %.sink.split ]
  resume { ptr, i32 } %.pn20.pn.pn
}